; ModuleID = '36/367.c'
source_filename = "36/367.c"
target datalayout = "e-m:e-p270:32:32-p271:32:32-p272:64:64-i64:64-f80:128-n8:16:32:64-S128"
target triple = "x86_64-pc-linux-gnu"

@.str = private unnamed_addr constant [6 x i8] c"%s %s\00", align 1
@.str.1 = private unnamed_addr constant [3 x i8] c"NO\00", align 1
@.str.2 = private unnamed_addr constant [4 x i8] c"YES\00", align 1

; Function Attrs: noinline nounwind uwtable
define dso_local void @main() #0 {
  %1 = alloca [100 x i8], align 16
  %2 = alloca [100 x i8], align 16
  %3 = alloca [100 x i8], align 16
  %4 = alloca [100 x i8], align 16
  %5 = alloca [100 x i32], align 16
  %6 = alloca [100 x i32], align 16
  %7 = alloca i32, align 4
  %8 = alloca i32, align 4
  %9 = alloca i32, align 4
  %10 = alloca i32, align 4
  %11 = call i32 (i8*, ...) @__isoc99_scanf(i8* getelementptr inbounds ([6 x i8], [6 x i8]* @.str, i64 0, i64 0), [100 x i8]* %1, [100 x i8]* %2)
  %12 = getelementptr inbounds [100 x i8], [100 x i8]* %1, i64 0, i64 0
  %13 = call i64 @strlen(i8* %12) #3
  %14 = trunc i64 %13 to i32
  store i32 %14, i32* %9, align 4
  %15 = getelementptr inbounds [100 x i8], [100 x i8]* %2, i64 0, i64 0
  %16 = call i64 @strlen(i8* %15) #3
  %17 = trunc i64 %16 to i32
  store i32 %17, i32* %10, align 4
  store i32 0, i32* %7, align 4
  br label %18

18:                                               ; preds = %30, %0
  %19 = load i32, i32* %7, align 4
  %20 = load i32, i32* %9, align 4
  %21 = icmp slt i32 %19, %20
  br i1 %21, label %22, label %33

22:                                               ; preds = %18
  %23 = load i32, i32* %7, align 4
  %24 = sext i32 %23 to i64
  %25 = getelementptr inbounds [100 x i8], [100 x i8]* %1, i64 0, i64 %24
  %26 = load i8, i8* %25, align 1
  %27 = load i32, i32* %7, align 4
  %28 = sext i32 %27 to i64
  %29 = getelementptr inbounds [100 x i8], [100 x i8]* %3, i64 0, i64 %28
  store i8 %26, i8* %29, align 1
  br label %30

30:                                               ; preds = %22
  %31 = load i32, i32* %7, align 4
  %32 = add nsw i32 %31, 1
  store i32 %32, i32* %7, align 4
  br label %18

33:                                               ; preds = %18
  store i32 0, i32* %7, align 4
  br label %34

34:                                               ; preds = %46, %33
  %35 = load i32, i32* %7, align 4
  %36 = load i32, i32* %10, align 4
  %37 = icmp slt i32 %35, %36
  br i1 %37, label %38, label %49

38:                                               ; preds = %34
  %39 = load i32, i32* %7, align 4
  %40 = sext i32 %39 to i64
  %41 = getelementptr inbounds [100 x i8], [100 x i8]* %2, i64 0, i64 %40
  %42 = load i8, i8* %41, align 1
  %43 = load i32, i32* %7, align 4
  %44 = sext i32 %43 to i64
  %45 = getelementptr inbounds [100 x i8], [100 x i8]* %4, i64 0, i64 %44
  store i8 %42, i8* %45, align 1
  br label %46

46:                                               ; preds = %38
  %47 = load i32, i32* %7, align 4
  %48 = add nsw i32 %47, 1
  store i32 %48, i32* %7, align 4
  br label %34

49:                                               ; preds = %34
  store i32 0, i32* %7, align 4
  br label %50

50:                                               ; preds = %60, %49
  %51 = load i32, i32* %7, align 4
  %52 = icmp slt i32 %51, 100
  br i1 %52, label %53, label %63

53:                                               ; preds = %50
  %54 = load i32, i32* %7, align 4
  %55 = sext i32 %54 to i64
  %56 = getelementptr inbounds [100 x i32], [100 x i32]* %5, i64 0, i64 %55
  store i32 0, i32* %56, align 4
  %57 = load i32, i32* %7, align 4
  %58 = sext i32 %57 to i64
  %59 = getelementptr inbounds [100 x i32], [100 x i32]* %6, i64 0, i64 %58
  store i32 0, i32* %59, align 4
  br label %60

60:                                               ; preds = %53
  %61 = load i32, i32* %7, align 4
  %62 = add nsw i32 %61, 1
  store i32 %62, i32* %7, align 4
  br label %50

63:                                               ; preds = %50
  %64 = load i32, i32* %9, align 4
  %65 = load i32, i32* %10, align 4
  %66 = icmp ne i32 %64, %65
  br i1 %66, label %67, label %69

67:                                               ; preds = %63
  %68 = call i32 (i8*, ...) @printf(i8* getelementptr inbounds ([3 x i8], [3 x i8]* @.str.1, i64 0, i64 0))
  br label %177

69:                                               ; preds = %63
  %70 = load i32, i32* %9, align 4
  %71 = load i32, i32* %10, align 4
  %72 = icmp eq i32 %70, %71
  br i1 %72, label %73, label %176

73:                                               ; preds = %69
  store i32 0, i32* %7, align 4
  br label %74

74:                                               ; preds = %139, %73
  %75 = load i32, i32* %7, align 4
  %76 = load i32, i32* %9, align 4
  %77 = icmp slt i32 %75, %76
  br i1 %77, label %78, label %142

78:                                               ; preds = %74
  store i32 0, i32* %8, align 4
  br label %79

79:                                               ; preds = %105, %78
  %80 = load i32, i32* %8, align 4
  %81 = load i32, i32* %9, align 4
  %82 = icmp slt i32 %80, %81
  br i1 %82, label %83, label %108

83:                                               ; preds = %79
  %84 = load i32, i32* %7, align 4
  %85 = sext i32 %84 to i64
  %86 = getelementptr inbounds [100 x i8], [100 x i8]* %3, i64 0, i64 %85
  %87 = load i8, i8* %86, align 1
  %88 = sext i8 %87 to i32
  %89 = load i32, i32* %8, align 4
  %90 = sext i32 %89 to i64
  %91 = getelementptr inbounds [100 x i8], [100 x i8]* %3, i64 0, i64 %90
  %92 = load i8, i8* %91, align 1
  %93 = sext i8 %92 to i32
  %94 = icmp eq i32 %88, %93
  br i1 %94, label %95, label %104

95:                                               ; preds = %83
  %96 = load i32, i32* %7, align 4
  %97 = sext i32 %96 to i64
  %98 = getelementptr inbounds [100 x i32], [100 x i32]* %5, i64 0, i64 %97
  %99 = load i32, i32* %98, align 4
  %100 = add nsw i32 %99, 1
  %101 = load i32, i32* %7, align 4
  %102 = sext i32 %101 to i64
  %103 = getelementptr inbounds [100 x i32], [100 x i32]* %5, i64 0, i64 %102
  store i32 %100, i32* %103, align 4
  br label %104

104:                                              ; preds = %95, %83
  br label %105

105:                                              ; preds = %104
  %106 = load i32, i32* %8, align 4
  %107 = add nsw i32 %106, 1
  store i32 %107, i32* %8, align 4
  br label %79

108:                                              ; preds = %79
  store i32 0, i32* %8, align 4
  br label %109

109:                                              ; preds = %135, %108
  %110 = load i32, i32* %8, align 4
  %111 = load i32, i32* %9, align 4
  %112 = icmp slt i32 %110, %111
  br i1 %112, label %113, label %138

113:                                              ; preds = %109
  %114 = load i32, i32* %7, align 4
  %115 = sext i32 %114 to i64
  %116 = getelementptr inbounds [100 x i8], [100 x i8]* %3, i64 0, i64 %115
  %117 = load i8, i8* %116, align 1
  %118 = sext i8 %117 to i32
  %119 = load i32, i32* %8, align 4
  %120 = sext i32 %119 to i64
  %121 = getelementptr inbounds [100 x i8], [100 x i8]* %4, i64 0, i64 %120
  %122 = load i8, i8* %121, align 1
  %123 = sext i8 %122 to i32
  %124 = icmp eq i32 %118, %123
  br i1 %124, label %125, label %134

125:                                              ; preds = %113
  %126 = load i32, i32* %7, align 4
  %127 = sext i32 %126 to i64
  %128 = getelementptr inbounds [100 x i32], [100 x i32]* %6, i64 0, i64 %127
  %129 = load i32, i32* %128, align 4
  %130 = add nsw i32 %129, 1
  %131 = load i32, i32* %7, align 4
  %132 = sext i32 %131 to i64
  %133 = getelementptr inbounds [100 x i32], [100 x i32]* %6, i64 0, i64 %132
  store i32 %130, i32* %133, align 4
  br label %134

134:                                              ; preds = %125, %113
  br label %135

135:                                              ; preds = %134
  %136 = load i32, i32* %8, align 4
  %137 = add nsw i32 %136, 1
  store i32 %137, i32* %8, align 4
  br label %109

138:                                              ; preds = %109
  br label %139

139:                                              ; preds = %138
  %140 = load i32, i32* %7, align 4
  %141 = add nsw i32 %140, 1
  store i32 %141, i32* %7, align 4
  br label %74

142:                                              ; preds = %74
  store i32 0, i32* %7, align 4
  br label %143

143:                                              ; preds = %159, %142
  %144 = load i32, i32* %7, align 4
  %145 = load i32, i32* %9, align 4
  %146 = icmp slt i32 %144, %145
  br i1 %146, label %147, label %162

147:                                              ; preds = %143
  %148 = load i32, i32* %7, align 4
  %149 = sext i32 %148 to i64
  %150 = getelementptr inbounds [100 x i32], [100 x i32]* %5, i64 0, i64 %149
  %151 = load i32, i32* %150, align 4
  %152 = load i32, i32* %7, align 4
  %153 = sext i32 %152 to i64
  %154 = getelementptr inbounds [100 x i32], [100 x i32]* %6, i64 0, i64 %153
  %155 = load i32, i32* %154, align 4
  %156 = icmp ne i32 %151, %155
  br i1 %156, label %157, label %158

157:                                              ; preds = %147
  br label %162

158:                                              ; preds = %147
  br label %159

159:                                              ; preds = %158
  %160 = load i32, i32* %7, align 4
  %161 = add nsw i32 %160, 1
  store i32 %161, i32* %7, align 4
  br label %143

162:                                              ; preds = %157, %143
  %163 = load i32, i32* %7, align 4
  %164 = load i32, i32* %9, align 4
  %165 = icmp sge i32 %163, %164
  br i1 %165, label %166, label %168

166:                                              ; preds = %162
  %167 = call i32 (i8*, ...) @printf(i8* getelementptr inbounds ([4 x i8], [4 x i8]* @.str.2, i64 0, i64 0))
  br label %175

168:                                              ; preds = %162
  %169 = load i32, i32* %7, align 4
  %170 = load i32, i32* %9, align 4
  %171 = icmp slt i32 %169, %170
  br i1 %171, label %172, label %174

172:                                              ; preds = %168
  %173 = call i32 (i8*, ...) @printf(i8* getelementptr inbounds ([3 x i8], [3 x i8]* @.str.1, i64 0, i64 0))
  br label %174

174:                                              ; preds = %172, %168
  br label %175

175:                                              ; preds = %174, %166
  br label %176

176:                                              ; preds = %175, %69
  br label %177

177:                                              ; preds = %176, %67
  ret void
}

declare dso_local i32 @__isoc99_scanf(i8*, ...) #1

; Function Attrs: nounwind readonly
declare dso_local i64 @strlen(i8*) #2

declare dso_local i32 @printf(i8*, ...) #1


!llvm.module.flags = !{!0}
!llvm.ident = !{!1}

!0 = !{i32 1, !"wchar_size", i32 4}
!1 = !{!"clang version 10.0.0-4ubuntu1 "}
